; Function Attrs: mustprogress uwtable
define void @_ZN2cv3dnn14dnn4_v202412238LogLayer6createERKNS1_11LayerParamsE(ptr dead_on_unwind noalias writable sret(%"struct.cv::Ptr.83") align 8 %0, ptr noundef nonnull align 8 dereferenceable(136) %1) local_unnamed_addr #3 align 2 personality ptr @__gxx_personality_v0 {
  %3 = tail call noalias noundef nonnull dereferenceable(104) ptr @_Znwm(i64 noundef 104) #27
  invoke void @_ZN2cv3dnn14dnn4_v202412235LayerC2Ev(ptr noundef nonnull align 8 dereferenceable(101) %3)
          to label %4 unwind label %24

4:                                                ; preds = %2
  store ptr getelementptr inbounds nuw inrange(-16, 288) (i8, ptr @_ZTVN2cv3dnn16ElementWiseLayerINS0_10LogFunctorEEE, i64 16), ptr %3, align 8, !tbaa !22
  store ptr %3, ptr %0, align 8, !tbaa !127
  %5 = getelementptr inbounds nuw i8, ptr %0, i64 8
  store ptr null, ptr %5, align 8, !tbaa !29
  %6 = invoke noalias noundef nonnull dereferenceable(24) ptr @_Znwm(i64 noundef 24) #27
          to label %20 unwind label %7

7:                                                ; preds = %4
  %8 = landingpad { ptr, i32 }
          catch ptr null
  %9 = extractvalue { ptr, i32 } %8, 0
  %10 = tail call ptr @__cxa_begin_catch(ptr %9) #25
  %11 = load ptr, ptr %3, align 8, !tbaa !22
  %12 = getelementptr inbounds nuw i8, ptr %11, i64 8
  %13 = load ptr, ptr %12, align 8
  tail call void %13(ptr noundef nonnull align 8 dereferenceable(101) %3) #25
  invoke void @__cxa_rethrow() #28
          to label %19 unwind label %14

14:                                               ; preds = %7
  %15 = landingpad { ptr, i32 }
          cleanup
  invoke void @__cxa_end_catch()
          to label %.body unwind label %16

16:                                               ; preds = %14
  %17 = landingpad { ptr, i32 }
          catch ptr null
  %18 = extractvalue { ptr, i32 } %17, 0
  tail call void @__clang_call_terminate(ptr %18) #29
  unreachable

19:                                               ; preds = %7
  unreachable

20:                                               ; preds = %4
  %21 = getelementptr inbounds nuw i8, ptr %6, i64 8
  store i32 1, ptr %21, align 8, !tbaa !30
  %22 = getelementptr inbounds nuw i8, ptr %6, i64 12
  store i32 1, ptr %22, align 4, !tbaa !33
  store ptr getelementptr inbounds nuw inrange(-16, 40) (i8, ptr @_ZTVSt15_Sp_counted_ptrIPN2cv3dnn16ElementWiseLayerINS1_10LogFunctorEEELN9__gnu_cxx12_Lock_policyE2EE, i64 16), ptr %6, align 8, !tbaa !22
  %23 = getelementptr inbounds nuw i8, ptr %6, i64 16
  store ptr %3, ptr %23, align 8, !tbaa !130
  store ptr %6, ptr %5, align 8, !tbaa !29
  invoke void @_ZN2cv3dnn14dnn4_v202412235Layer13setParamsFromERKNS1_11LayerParamsE(ptr noundef nonnull align 8 dereferenceable(100) %3, ptr noundef nonnull align 8 dereferenceable(136) %1)
          to label %28 unwind label %26

24:                                               ; preds = %2
  %25 = landingpad { ptr, i32 }
          cleanup
  tail call void @_ZdlPv(ptr noundef nonnull %3) #26
  br label %.body

26:                                               ; preds = %20
  %27 = landingpad { ptr, i32 }
          cleanup
  tail call void @_ZNSt12__shared_ptrIN2cv3dnn14dnn4_v202412238LogLayerELN9__gnu_cxx12_Lock_policyE2EED2Ev(ptr noundef nonnull align 8 dereferenceable(16) %0) #25
  br label %.body

28:                                               ; preds = %20
  ret void

.body:                                            ; preds = %14, %24, %26
  %.pn = phi { ptr, i32 } [ %27, %26 ], [ %25, %24 ], [ %15, %14 ]
  resume { ptr, i32 } %.pn
}